; Function Attrs: mustprogress uwtable
define void @_ZN32pxrInternal_v0_24__pxrReserved__15HdChangeTracker12BprimRemovedERKNS_7SdfPathE(ptr noundef nonnull align 8 dereferenceable(3328) %0, ptr noundef nonnull align 4 dereferenceable(8) %1) local_unnamed_addr #8 align 2 {
  %3 = load atomic i32, ptr getelementptr inbounds (i8, ptr @_ZN32pxrInternal_v0_24__pxrReserved__7TfDebug5_DataINS_26HD_BPRIM_ADDED__DebugCodesEE5nodesE, i64 4) seq_cst, align 4
  %4 = icmp eq i32 %3, 0
  br i1 %4, label %5, label %_ZN32pxrInternal_v0_24__pxrReserved__7TfDebug9IsEnabledINS_26HD_BPRIM_ADDED__DebugCodesEEEbT_.exit

5:                                                ; preds = %2
  tail call void @_ZN32pxrInternal_v0_24__pxrReserved__7TfDebug15_InitializeNodeERNS0_5_NodeEPKc(ptr noundef nonnull align 4 dereferenceable(4) getelementptr inbounds (i8, ptr @_ZN32pxrInternal_v0_24__pxrReserved__7TfDebug5_DataINS_26HD_BPRIM_ADDED__DebugCodesEE5nodesE, i64 4), ptr noundef nonnull @.str.78)
  %6 = load atomic i32, ptr getelementptr inbounds (i8, ptr @_ZN32pxrInternal_v0_24__pxrReserved__7TfDebug5_DataINS_26HD_BPRIM_ADDED__DebugCodesEE5nodesE, i64 4) seq_cst, align 4
  br label %_ZN32pxrInternal_v0_24__pxrReserved__7TfDebug9IsEnabledINS_26HD_BPRIM_ADDED__DebugCodesEEEbT_.exit

_ZN32pxrInternal_v0_24__pxrReserved__7TfDebug9IsEnabledINS_26HD_BPRIM_ADDED__DebugCodesEEEbT_.exit: ; preds = %2, %5
  %.0.i = phi i32 [ %6, %5 ], [ %3, %2 ]
  %7 = icmp eq i32 %.0.i, 2
  br i1 %7, label %8, label %10

8:                                                ; preds = %_ZN32pxrInternal_v0_24__pxrReserved__7TfDebug9IsEnabledINS_26HD_BPRIM_ADDED__DebugCodesEEEbT_.exit
  %9 = tail call noundef ptr @_ZNK32pxrInternal_v0_24__pxrReserved__7SdfPath7GetTextEv(ptr noundef nonnull align 4 dereferenceable(8) %1)
  tail call void (ptr, ...) @_ZN32pxrInternal_v0_24__pxrReserved__7TfDebug6Helper3MsgEPKcz(ptr noundef nonnull @.str.30, ptr noundef %9)
  br label %10

10:                                               ; preds = %_ZN32pxrInternal_v0_24__pxrReserved__7TfDebug9IsEnabledINS_26HD_BPRIM_ADDED__DebugCodesEEEbT_.exit, %8
  %11 = getelementptr inbounds nuw i8, ptr %0, i64 232
  %12 = tail call noundef i64 @_ZNSt10_HashtableIN32pxrInternal_v0_24__pxrReserved__7SdfPathESt4pairIKS1_jESaIS4_ENSt8__detail10_Select1stESt8equal_toIS1_ENS1_4HashENS6_18_Mod_range_hashingENS6_20_Default_ranged_hashENS6_20_Prime_rehash_policyENS6_17_Hashtable_traitsILb1ELb0ELb1EEEE8_M_eraseESt17integral_constantIbLb1EERS3_(ptr noundef nonnull align 8 dereferenceable(56) %11, ptr noundef nonnull align 4 dereferenceable(8) %1)
  %13 = getelementptr inbounds nuw i8, ptr %0, i64 3300
  %14 = load i32, ptr %13, align 4
  %15 = add i32 %14, 1
  store i32 %15, ptr %13, align 4
  %16 = getelementptr inbounds nuw i8, ptr %0, i64 3292
  %17 = load i32, ptr %16, align 4
  %18 = add i32 %17, 1
  store i32 %18, ptr %16, align 4
  ret void
}